	.file	"prog.c"
	.text
	.globl	foo
	.type	foo, @function
foo:
.LFB0:
	.cfi_startproc
	pushq	%rbp
	.cfi_def_cfa_offset 16
	.cfi_offset 6, -16
	movq	%rsp, %rbp
	.cfi_def_cfa_register 6
	pushq	%rbx
	subq	$40, %rsp
	.cfi_offset 3, -24
	movq	%rdi, -40(%rbp)
	movq	%rsi, -48(%rbp)
	movl	$0, -20(%rbp)
	jmp	.L2
.L3:
	movl	-20(%rbp), %eax
	cltq
	leaq	0(,%rax,4), %rdx
	movq	-40(%rbp), %rax
	leaq	(%rdx,%rax), %rbx
	call	rand
	cvtsi2ss	%eax, %xmm0
	movss	.LC0(%rip), %xmm1
	divss	%xmm1, %xmm0
	movss	%xmm0, (%rbx)
	movl	-20(%rbp), %eax
	cltq
	leaq	0(,%rax,4), %rdx
	movq	-48(%rbp), %rax
	leaq	(%rdx,%rax), %rbx
	call	rand
	cvtsi2ss	%eax, %xmm0
	movss	.LC0(%rip), %xmm1
	divss	%xmm1, %xmm0
	movss	%xmm0, (%rbx)
	addl	$1, -20(%rbp)
.L2:
	cmpl	$1023, -20(%rbp)
	jle	.L3
	addq	$40, %rsp
	popq	%rbx
	popq	%rbp
	.cfi_def_cfa 7, 8
	ret
	.cfi_endproc
.LFE0:
	.size	foo, .-foo
	.globl	bar
	.type	bar, @function
bar:
.LFB1:
	.cfi_startproc
	pushq	%rbp
	.cfi_def_cfa_offset 16
	.cfi_offset 6, -16
	movq	%rsp, %rbp
	.cfi_def_cfa_register 6
	pushq	%rbx
	subq	$56, %rsp
	.cfi_offset 3, -24
	movq	%rdi, -40(%rbp)
	movq	%rsi, -48(%rbp)
	movq	%rdx, -56(%rbp)
	movl	$0, -20(%rbp)
	jmp	.L5
.L6:
	movl	-20(%rbp), %eax
	cltq
	leaq	0(,%rax,4), %rdx
	movq	-56(%rbp), %rax
	leaq	(%rdx,%rax), %rbx
	movl	-20(%rbp), %eax
	cltq
	leaq	0(,%rax,4), %rdx
	movq	-40(%rbp), %rax
	addq	%rdx, %rax
	movss	(%rax), %xmm1
	movl	-20(%rbp), %eax
	cltq
	leaq	0(,%rax,4), %rdx
	movq	-48(%rbp), %rax
	addq	%rdx, %rax
	movss	(%rax), %xmm0
	mulss	%xmm1, %xmm0
	call	sqrtf
	movss	%xmm0, -60(%rbp)
	movl	-60(%rbp), %eax
	movl	%eax, (%rbx)
	addl	$1, -20(%rbp)
.L5:
	cmpl	$1023, -20(%rbp)
	jle	.L6
	addq	$56, %rsp
	popq	%rbx
	popq	%rbp
	.cfi_def_cfa 7, 8
	ret
	.cfi_endproc
.LFE1:
	.size	bar, .-bar
	.globl	main
	.type	main, @function
main:
.LFB2:
	.cfi_startproc
	pushq	%rbp
	.cfi_def_cfa_offset 16
	.cfi_offset 6, -16
	movq	%rsp, %rbp
	.cfi_def_cfa_register 6
	subq	$12288, %rsp
	movl	$0, %edi
	call	time
	movl	%eax, %edi
	call	srand
	leaq	-8192(%rbp), %rdx
	leaq	-4096(%rbp), %rax
	movq	%rdx, %rsi
	movq	%rax, %rdi
	call	foo
	leaq	-12288(%rbp), %rdx
	leaq	-8192(%rbp), %rcx
	leaq	-4096(%rbp), %rax
	movq	%rcx, %rsi
	movq	%rax, %rdi
	call	bar
	movl	$0, %eax
	leave
	.cfi_def_cfa 7, 8
	ret
	.cfi_endproc
.LFE2:
	.size	main, .-main
	.section	.rodata
	.align 4
.LC0:
	.long	1325400064
	.ident	"GCC: (GNU) 4.8.3 20140911 (Red Hat 4.8.3-7)"
	.section	.note.GNU-stack,"",@progbits
